#include <math.h>
#include <stdio.h>
#include <stdlib.h>
#include <string.h>

int main(){
    int col,row,i,k,a,e,x;
    int sz[100][100];
    scanf("%d%d",&row,&col);
    for(k=0;k<row;k++){
        for(i=0;i<col;i++){
            scanf("%d",&sz[k][i]);
        }
    }
    k=0;i=-1;e=0;
    for(x=0;;x=x+2){a=0;
       for(i=i+1;i<col;i++){
           printf("%d\n",sz[k][i]);a++;e++;
           if(a==col-x){break;}
       }
       if(e==row*col){break;}
       a=0;
       for(k=k+1;k<row;k++){
           printf("%d\n",sz[k][i]);a++;e++;
           if(a==row-1-x){break;}
       }
       if(e==row*col){break;}
       a=0;
       for(i=i-1;i>=0;i--){
           printf("%d\n",sz[k][i]);a++;e++;
           if(a==col-1-x){break;}
       }
       if(e==row*col){break;}
       a=0;
       for(k=k-1;k>=0;k--){
            printf("%d\n",sz[k][i]);a++;e++;
            if(a==row-2-x){break;}
       }
       if(e==row*col){break;}
    }
return 0;
}
