; ModuleID = '46/3330.c'
source_filename = "46/3330.c"
target datalayout = "e-m:e-p270:32:32-p271:32:32-p272:64:64-i64:64-f80:128-n8:16:32:64-S128"
target triple = "x86_64-pc-linux-gnu"

@.str = private unnamed_addr constant [5 x i8] c"%d%d\00", align 1
@.str.1 = private unnamed_addr constant [3 x i8] c"%d\00", align 1
@.str.2 = private unnamed_addr constant [4 x i8] c"%d\0A\00", align 1

; Function Attrs: noinline nounwind uwtable
define dso_local i32 @main() #0 {
  %1 = alloca i32, align 4
  %2 = alloca i32, align 4
  %3 = alloca i32, align 4
  %4 = alloca i32, align 4
  %5 = alloca i32, align 4
  %6 = alloca i32, align 4
  %7 = alloca i32, align 4
  %8 = alloca i32, align 4
  %9 = alloca [100 x [100 x i32]], align 16
  store i32 0, i32* %1, align 4
  %10 = call i32 (i8*, ...) @__isoc99_scanf(i8* getelementptr inbounds ([5 x i8], [5 x i8]* @.str, i64 0, i64 0), i32* %3, i32* %2)
  store i32 0, i32* %5, align 4
  br label %11

11:                                               ; preds = %32, %0
  %12 = load i32, i32* %5, align 4
  %13 = load i32, i32* %3, align 4
  %14 = icmp slt i32 %12, %13
  br i1 %14, label %15, label %35

15:                                               ; preds = %11
  store i32 0, i32* %4, align 4
  br label %16

16:                                               ; preds = %28, %15
  %17 = load i32, i32* %4, align 4
  %18 = load i32, i32* %2, align 4
  %19 = icmp slt i32 %17, %18
  br i1 %19, label %20, label %31

20:                                               ; preds = %16
  %21 = load i32, i32* %5, align 4
  %22 = sext i32 %21 to i64
  %23 = getelementptr inbounds [100 x [100 x i32]], [100 x [100 x i32]]* %9, i64 0, i64 %22
  %24 = load i32, i32* %4, align 4
  %25 = sext i32 %24 to i64
  %26 = getelementptr inbounds [100 x i32], [100 x i32]* %23, i64 0, i64 %25
  %27 = call i32 (i8*, ...) @__isoc99_scanf(i8* getelementptr inbounds ([3 x i8], [3 x i8]* @.str.1, i64 0, i64 0), i32* %26)
  br label %28

28:                                               ; preds = %20
  %29 = load i32, i32* %4, align 4
  %30 = add nsw i32 %29, 1
  store i32 %30, i32* %4, align 4
  br label %16

31:                                               ; preds = %16
  br label %32

32:                                               ; preds = %31
  %33 = load i32, i32* %5, align 4
  %34 = add nsw i32 %33, 1
  store i32 %34, i32* %5, align 4
  br label %11

35:                                               ; preds = %11
  store i32 0, i32* %5, align 4
  store i32 -1, i32* %4, align 4
  store i32 0, i32* %7, align 4
  store i32 0, i32* %8, align 4
  br label %36

36:                                               ; preds = %186, %35
  store i32 0, i32* %6, align 4
  %37 = load i32, i32* %4, align 4
  %38 = add nsw i32 %37, 1
  store i32 %38, i32* %4, align 4
  br label %39

39:                                               ; preds = %63, %36
  %40 = load i32, i32* %4, align 4
  %41 = load i32, i32* %2, align 4
  %42 = icmp slt i32 %40, %41
  br i1 %42, label %43, label %66

43:                                               ; preds = %39
  %44 = load i32, i32* %5, align 4
  %45 = sext i32 %44 to i64
  %46 = getelementptr inbounds [100 x [100 x i32]], [100 x [100 x i32]]* %9, i64 0, i64 %45
  %47 = load i32, i32* %4, align 4
  %48 = sext i32 %47 to i64
  %49 = getelementptr inbounds [100 x i32], [100 x i32]* %46, i64 0, i64 %48
  %50 = load i32, i32* %49, align 4
  %51 = call i32 (i8*, ...) @printf(i8* getelementptr inbounds ([4 x i8], [4 x i8]* @.str.2, i64 0, i64 0), i32 %50)
  %52 = load i32, i32* %6, align 4
  %53 = add nsw i32 %52, 1
  store i32 %53, i32* %6, align 4
  %54 = load i32, i32* %7, align 4
  %55 = add nsw i32 %54, 1
  store i32 %55, i32* %7, align 4
  %56 = load i32, i32* %6, align 4
  %57 = load i32, i32* %2, align 4
  %58 = load i32, i32* %8, align 4
  %59 = sub nsw i32 %57, %58
  %60 = icmp eq i32 %56, %59
  br i1 %60, label %61, label %62

61:                                               ; preds = %43
  br label %66

62:                                               ; preds = %43
  br label %63

63:                                               ; preds = %62
  %64 = load i32, i32* %4, align 4
  %65 = add nsw i32 %64, 1
  store i32 %65, i32* %4, align 4
  br label %39

66:                                               ; preds = %61, %39
  %67 = load i32, i32* %7, align 4
  %68 = load i32, i32* %3, align 4
  %69 = load i32, i32* %2, align 4
  %70 = mul nsw i32 %68, %69
  %71 = icmp eq i32 %67, %70
  br i1 %71, label %72, label %73

72:                                               ; preds = %66
  br label %189

73:                                               ; preds = %66
  store i32 0, i32* %6, align 4
  %74 = load i32, i32* %5, align 4
  %75 = add nsw i32 %74, 1
  store i32 %75, i32* %5, align 4
  br label %76

76:                                               ; preds = %101, %73
  %77 = load i32, i32* %5, align 4
  %78 = load i32, i32* %3, align 4
  %79 = icmp slt i32 %77, %78
  br i1 %79, label %80, label %104

80:                                               ; preds = %76
  %81 = load i32, i32* %5, align 4
  %82 = sext i32 %81 to i64
  %83 = getelementptr inbounds [100 x [100 x i32]], [100 x [100 x i32]]* %9, i64 0, i64 %82
  %84 = load i32, i32* %4, align 4
  %85 = sext i32 %84 to i64
  %86 = getelementptr inbounds [100 x i32], [100 x i32]* %83, i64 0, i64 %85
  %87 = load i32, i32* %86, align 4
  %88 = call i32 (i8*, ...) @printf(i8* getelementptr inbounds ([4 x i8], [4 x i8]* @.str.2, i64 0, i64 0), i32 %87)
  %89 = load i32, i32* %6, align 4
  %90 = add nsw i32 %89, 1
  store i32 %90, i32* %6, align 4
  %91 = load i32, i32* %7, align 4
  %92 = add nsw i32 %91, 1
  store i32 %92, i32* %7, align 4
  %93 = load i32, i32* %6, align 4
  %94 = load i32, i32* %3, align 4
  %95 = sub nsw i32 %94, 1
  %96 = load i32, i32* %8, align 4
  %97 = sub nsw i32 %95, %96
  %98 = icmp eq i32 %93, %97
  br i1 %98, label %99, label %100

99:                                               ; preds = %80
  br label %104

100:                                              ; preds = %80
  br label %101

101:                                              ; preds = %100
  %102 = load i32, i32* %5, align 4
  %103 = add nsw i32 %102, 1
  store i32 %103, i32* %5, align 4
  br label %76

104:                                              ; preds = %99, %76
  %105 = load i32, i32* %7, align 4
  %106 = load i32, i32* %3, align 4
  %107 = load i32, i32* %2, align 4
  %108 = mul nsw i32 %106, %107
  %109 = icmp eq i32 %105, %108
  br i1 %109, label %110, label %111

110:                                              ; preds = %104
  br label %189

111:                                              ; preds = %104
  store i32 0, i32* %6, align 4
  %112 = load i32, i32* %4, align 4
  %113 = sub nsw i32 %112, 1
  store i32 %113, i32* %4, align 4
  br label %114

114:                                              ; preds = %138, %111
  %115 = load i32, i32* %4, align 4
  %116 = icmp sge i32 %115, 0
  br i1 %116, label %117, label %141

117:                                              ; preds = %114
  %118 = load i32, i32* %5, align 4
  %119 = sext i32 %118 to i64
  %120 = getelementptr inbounds [100 x [100 x i32]], [100 x [100 x i32]]* %9, i64 0, i64 %119
  %121 = load i32, i32* %4, align 4
  %122 = sext i32 %121 to i64
  %123 = getelementptr inbounds [100 x i32], [100 x i32]* %120, i64 0, i64 %122
  %124 = load i32, i32* %123, align 4
  %125 = call i32 (i8*, ...) @printf(i8* getelementptr inbounds ([4 x i8], [4 x i8]* @.str.2, i64 0, i64 0), i32 %124)
  %126 = load i32, i32* %6, align 4
  %127 = add nsw i32 %126, 1
  store i32 %127, i32* %6, align 4
  %128 = load i32, i32* %7, align 4
  %129 = add nsw i32 %128, 1
  store i32 %129, i32* %7, align 4
  %130 = load i32, i32* %6, align 4
  %131 = load i32, i32* %2, align 4
  %132 = sub nsw i32 %131, 1
  %133 = load i32, i32* %8, align 4
  %134 = sub nsw i32 %132, %133
  %135 = icmp eq i32 %130, %134
  br i1 %135, label %136, label %137

136:                                              ; preds = %117
  br label %141

137:                                              ; preds = %117
  br label %138

138:                                              ; preds = %137
  %139 = load i32, i32* %4, align 4
  %140 = add nsw i32 %139, -1
  store i32 %140, i32* %4, align 4
  br label %114

141:                                              ; preds = %136, %114
  %142 = load i32, i32* %7, align 4
  %143 = load i32, i32* %3, align 4
  %144 = load i32, i32* %2, align 4
  %145 = mul nsw i32 %143, %144
  %146 = icmp eq i32 %142, %145
  br i1 %146, label %147, label %148

147:                                              ; preds = %141
  br label %189

148:                                              ; preds = %141
  store i32 0, i32* %6, align 4
  %149 = load i32, i32* %5, align 4
  %150 = sub nsw i32 %149, 1
  store i32 %150, i32* %5, align 4
  br label %151

151:                                              ; preds = %175, %148
  %152 = load i32, i32* %5, align 4
  %153 = icmp sge i32 %152, 0
  br i1 %153, label %154, label %178

154:                                              ; preds = %151
  %155 = load i32, i32* %5, align 4
  %156 = sext i32 %155 to i64
  %157 = getelementptr inbounds [100 x [100 x i32]], [100 x [100 x i32]]* %9, i64 0, i64 %156
  %158 = load i32, i32* %4, align 4
  %159 = sext i32 %158 to i64
  %160 = getelementptr inbounds [100 x i32], [100 x i32]* %157, i64 0, i64 %159
  %161 = load i32, i32* %160, align 4
  %162 = call i32 (i8*, ...) @printf(i8* getelementptr inbounds ([4 x i8], [4 x i8]* @.str.2, i64 0, i64 0), i32 %161)
  %163 = load i32, i32* %6, align 4
  %164 = add nsw i32 %163, 1
  store i32 %164, i32* %6, align 4
  %165 = load i32, i32* %7, align 4
  %166 = add nsw i32 %165, 1
  store i32 %166, i32* %7, align 4
  %167 = load i32, i32* %6, align 4
  %168 = load i32, i32* %3, align 4
  %169 = sub nsw i32 %168, 2
  %170 = load i32, i32* %8, align 4
  %171 = sub nsw i32 %169, %170
  %172 = icmp eq i32 %167, %171
  br i1 %172, label %173, label %174

173:                                              ; preds = %154
  br label %178

174:                                              ; preds = %154
  br label %175

175:                                              ; preds = %174
  %176 = load i32, i32* %5, align 4
  %177 = add nsw i32 %176, -1
  store i32 %177, i32* %5, align 4
  br label %151

178:                                              ; preds = %173, %151
  %179 = load i32, i32* %7, align 4
  %180 = load i32, i32* %3, align 4
  %181 = load i32, i32* %2, align 4
  %182 = mul nsw i32 %180, %181
  %183 = icmp eq i32 %179, %182
  br i1 %183, label %184, label %185

184:                                              ; preds = %178
  br label %189

185:                                              ; preds = %178
  br label %186

186:                                              ; preds = %185
  %187 = load i32, i32* %8, align 4
  %188 = add nsw i32 %187, 2
  store i32 %188, i32* %8, align 4
  br label %36

189:                                              ; preds = %184, %147, %110, %72
  ret i32 0
}

declare dso_local i32 @__isoc99_scanf(i8*, ...) #1

declare dso_local i32 @printf(i8*, ...) #1


!llvm.module.flags = !{!0}
!llvm.ident = !{!1}

!0 = !{i32 1, !"wchar_size", i32 4}
!1 = !{!"clang version 10.0.0-4ubuntu1 "}
